target datalayout = "e-m:e-p270:32:32-p271:32:32-p272:64:64-i64:64-i128:128-f80:128-n8:16:32:64-S128"
target triple = "x86_64-pc-linux-gnu"

%struct._ir_insn = type { %struct.anon, %union.anon.5 }
%struct.anon = type { %union.anon, %union.anon.4 }
%union.anon = type { i32 }
%union.anon.4 = type { i32 }
%union.anon.5 = type { %union._ir_val }
%union._ir_val = type { double }
%struct._ir_ctx = type { ptr, i32, i32, i32, i32, i32, i32, i32, i32, i32, i32, %struct._ir_insn, ptr, ptr, ptr, i32, i32, i32, ptr, ptr, ptr, ptr, ptr, i32, i32, i64, i32, i32, i32, i64, i32, i32, i32, i32, ptr, ptr, ptr, ptr, ptr, ptr, %union.anon.13, ptr, i32, i32, i32, i64, i32, i32, i32, ptr, ptr, ptr, ptr, %struct._ir_strtab, [61 x i32], [14 x i32] }
%union.anon.13 = type { ptr }
%struct._ir_strtab = type { ptr, i32, i32, i32, i32, ptr, i32, i32 }
%struct._ir_use_list = type { i32, i32 }

; Function Attrs: nounwind uwtable
define hidden void @ir_use_list_remove_all(ptr noundef %0, i32 noundef %1, i32 noundef %2) #0 {
  %4 = alloca ptr, align 8
  %5 = alloca i32, align 4
  %6 = alloca i32, align 4
  %7 = alloca i32, align 4
  %8 = alloca i32, align 4
  %9 = alloca ptr, align 8
  %10 = alloca ptr, align 8
  %11 = alloca i32, align 4
  %12 = alloca ptr, align 8
  %13 = alloca i32, align 4
  store ptr %0, ptr %4, align 8
  store i32 %1, ptr %5, align 4
  store i32 %2, ptr %6, align 4
  %14 = load ptr, ptr %4, align 8
  %15 = getelementptr inbounds %struct._ir_ctx, ptr %14, i32 0, i32 13
  %16 = load ptr, ptr %15, align 8
  %17 = load i32, ptr %5, align 4
  %18 = sext i32 %17 to i64
  %19 = getelementptr inbounds %struct._ir_use_list, ptr %16, i64 %18
  store ptr %19, ptr %12, align 8
  store i32 0, ptr %13, align 4
  %20 = load ptr, ptr %12, align 8
  %21 = getelementptr inbounds %struct._ir_use_list, ptr %20, i32 0, i32 1
  %22 = load i32, ptr %21, align 4
  store i32 %22, ptr %8, align 4
  store i32 0, ptr %7, align 4
  %23 = load ptr, ptr %4, align 8
  %24 = getelementptr inbounds %struct._ir_ctx, ptr %23, i32 0, i32 14
  %25 = load ptr, ptr %24, align 8
  %26 = load ptr, ptr %12, align 8
  %27 = getelementptr inbounds %struct._ir_use_list, ptr %26, i32 0, i32 0
  %28 = load i32, ptr %27, align 4
  %29 = sext i32 %28 to i64
  %30 = getelementptr inbounds i32, ptr %25, i64 %29
  store ptr %30, ptr %10, align 8
  store ptr %30, ptr %9, align 8
  br label %31

31:                                               ; preds = %55, %3
  %32 = load i32, ptr %7, align 4
  %33 = load i32, ptr %8, align 4
  %34 = icmp slt i32 %32, %33
  br i1 %34, label %35, label %60

35:                                               ; preds = %31
  %36 = load ptr, ptr %9, align 8
  %37 = load i32, ptr %36, align 4
  store i32 %37, ptr %11, align 4
  %38 = load i32, ptr %11, align 4
  %39 = load i32, ptr %6, align 4
  %40 = icmp eq i32 %38, %39
  br i1 %40, label %41, label %44

41:                                               ; preds = %35
  %42 = load i32, ptr %13, align 4
  %43 = add nsw i32 %42, 1
  store i32 %43, ptr %13, align 4
  br label %54

44:                                               ; preds = %35
  %45 = load ptr, ptr %9, align 8
  %46 = load ptr, ptr %10, align 8
  %47 = icmp ne ptr %45, %46
  br i1 %47, label %48, label %51

48:                                               ; preds = %44
  %49 = load i32, ptr %11, align 4
  %50 = load ptr, ptr %10, align 8
  store i32 %49, ptr %50, align 4
  br label %51

51:                                               ; preds = %48, %44
  %52 = load ptr, ptr %10, align 8
  %53 = getelementptr inbounds i32, ptr %52, i32 1
  store ptr %53, ptr %10, align 8
  br label %54

54:                                               ; preds = %51, %41
  br label %55

55:                                               ; preds = %54
  %56 = load i32, ptr %7, align 4
  %57 = add nsw i32 %56, 1
  store i32 %57, ptr %7, align 4
  %58 = load ptr, ptr %9, align 8
  %59 = getelementptr inbounds i32, ptr %58, i32 1
  store ptr %59, ptr %9, align 8
  br label %31

60:                                               ; preds = %31
  %61 = load i32, ptr %13, align 4
  %62 = icmp ne i32 %61, 0
  br i1 %62, label %63, label %78

63:                                               ; preds = %60
  %64 = load i32, ptr %13, align 4
  %65 = load ptr, ptr %12, align 8
  %66 = getelementptr inbounds %struct._ir_use_list, ptr %65, i32 0, i32 1
  %67 = load i32, ptr %66, align 4
  %68 = sub nsw i32 %67, %64
  store i32 %68, ptr %66, align 4
  br label %69

69:                                               ; preds = %73, %63
  %70 = load ptr, ptr %10, align 8
  store i32 0, ptr %70, align 4
  %71 = load ptr, ptr %10, align 8
  %72 = getelementptr inbounds i32, ptr %71, i32 1
  store ptr %72, ptr %10, align 8
  br label %73

73:                                               ; preds = %69
  %74 = load i32, ptr %13, align 4
  %75 = add nsw i32 %74, -1
  store i32 %75, ptr %13, align 4
  %76 = icmp ne i32 %75, 0
  br i1 %76, label %69, label %77

77:                                               ; preds = %73
  br label %78

78:                                               ; preds = %77, %60
  ret void
}