; Function Attrs: nofree norecurse nosync nounwind memory(readwrite, inaccessiblemem: none) uwtable
define hidden void @ir_use_list_remove_all(ptr nocapture noundef readonly %0, i32 noundef %1, i32 noundef %2) local_unnamed_addr #14 {
  %4 = getelementptr inbounds i8, ptr %0, i64 72
  %5 = load ptr, ptr %4, align 8
  %6 = sext i32 %1 to i64
  %7 = getelementptr inbounds %struct._ir_use_list, ptr %5, i64 %6
  %8 = getelementptr inbounds i8, ptr %7, i64 4
  %9 = load i32, ptr %8, align 4
  %10 = icmp sgt i32 %9, 0
  br i1 %10, label %.lr.ph.preheader, label %.loopexit

.lr.ph.preheader:                                 ; preds = %3
  %11 = getelementptr inbounds i8, ptr %0, i64 80
  %12 = load ptr, ptr %11, align 8
  %13 = load i32, ptr %7, align 4
  %14 = sext i32 %13 to i64
  %15 = getelementptr inbounds i32, ptr %12, i64 %14
  br label %.lr.ph

.lr.ph:                                           ; preds = %.lr.ph.preheader, %24
  %.034 = phi i32 [ %.1, %24 ], [ 0, %.lr.ph.preheader ]
  %.02333 = phi i32 [ %25, %24 ], [ 0, %.lr.ph.preheader ]
  %.02432 = phi ptr [ %26, %24 ], [ %15, %.lr.ph.preheader ]
  %.02531 = phi ptr [ %.126, %24 ], [ %15, %.lr.ph.preheader ]
  %16 = load i32, ptr %.02432, align 4
  %17 = icmp eq i32 %16, %2
  br i1 %17, label %18, label %20

18:                                               ; preds = %.lr.ph
  %19 = add nsw i32 %.034, 1
  br label %24

20:                                               ; preds = %.lr.ph
  %.not30 = icmp eq ptr %.02432, %.02531
  br i1 %.not30, label %22, label %21

21:                                               ; preds = %20
  store i32 %16, ptr %.02531, align 4
  br label %22

22:                                               ; preds = %21, %20
  %23 = getelementptr inbounds i8, ptr %.02531, i64 4
  br label %24

24:                                               ; preds = %18, %22
  %.126 = phi ptr [ %.02531, %18 ], [ %23, %22 ]
  %.1 = phi i32 [ %19, %18 ], [ %.034, %22 ]
  %25 = add nuw nsw i32 %.02333, 1
  %26 = getelementptr inbounds i8, ptr %.02432, i64 4
  %exitcond.not = icmp eq i32 %25, %9
  br i1 %exitcond.not, label %._crit_edge, label %.lr.ph

._crit_edge:                                      ; preds = %24
  %.not = icmp eq i32 %.1, 0
  br i1 %.not, label %.loopexit, label %.loopexit.loopexit

.loopexit.loopexit:                               ; preds = %._crit_edge
  %27 = load i32, ptr %8, align 4
  %28 = sub nsw i32 %27, %.1
  store i32 %28, ptr %8, align 4
  %29 = zext i32 %.1 to i64
  %30 = shl nuw nsw i64 %29, 2
  tail call void @llvm.memset.p0.i64(ptr align 4 %.126, i8 0, i64 %30, i1 false)
  br label %.loopexit

.loopexit:                                        ; preds = %3, %.loopexit.loopexit, %._crit_edge
  ret void
}